; Function Attrs: mustprogress uwtable
define noalias ptr @lean_get_set_stderr(ptr noundef %0, ptr noundef readnone captures(none) %1) local_unnamed_addr #0 personality ptr @__gxx_personality_v0 {
  %3 = tail call align 8 ptr @llvm.threadlocal.address.p0(ptr align 8 @_ZN4leanL32get_stream_current_stderr_tlocalE)
  %4 = load ptr, ptr %3, align 8, !tbaa !40
  %.not.i = icmp eq ptr %4, null
  br i1 %.not.i, label %5, label %_ZN4lean10object_refD2Ev.exit

5:                                                ; preds = %2
  %6 = tail call noalias noundef nonnull dereferenceable(8) ptr @_Znwm(i64 noundef 8) #29
  %7 = load ptr, ptr @_ZN4leanL15g_stream_stderrE, align 8, !tbaa !3
  store ptr %7, ptr %6, align 8, !tbaa !42
  store ptr %6, ptr %3, align 8, !tbaa !40
  tail call void @_ZN4lean25register_thread_finalizerEPFvPvES0_(ptr noundef nonnull @_ZN4leanL34finalize_get_stream_current_stderrEPv, ptr noundef nonnull %6)
  %.pre.i = load ptr, ptr %3, align 8, !tbaa !40
  br label %_ZN4lean10object_refD2Ev.exit

_ZN4lean10object_refD2Ev.exit:                    ; preds = %5, %2
  %8 = phi ptr [ %.pre.i, %5 ], [ %4, %2 ]
  %9 = load ptr, ptr %8, align 8, !tbaa !42
  store ptr %0, ptr %8, align 8, !tbaa !42
  tail call void @lean_inc_heartbeat()
  %10 = tail call noalias ptr @mi_malloc_small(i64 noundef 24) #27
  %11 = icmp eq ptr %10, null
  br i1 %11, label %12, label %_ZN4lean15io_result_mk_okEP11lean_object.exit

12:                                               ; preds = %_ZN4lean10object_refD2Ev.exit
  tail call void @lean_internal_panic_out_of_memory() #28
  unreachable

_ZN4lean15io_result_mk_okEP11lean_object.exit:    ; preds = %_ZN4lean10object_refD2Ev.exit
  %13 = getelementptr inbounds nuw i8, ptr %10, i64 4
  store i32 1, ptr %10, align 4, !tbaa !7
  store i32 131096, ptr %13, align 4
  %14 = getelementptr inbounds nuw i8, ptr %10, i64 8
  store ptr %9, ptr %14, align 8, !tbaa !3
  %15 = getelementptr inbounds nuw i8, ptr %10, i64 16
  store ptr inttoptr (i64 1 to ptr), ptr %15, align 8, !tbaa !3
  ret ptr %10
}